(i__main__
LogFile
p0
(dp1
S'_installed_files'
p2
(dp3
S'../../../Generator/KKMC/KKMC-00-00-44/x86_64-slc5-gcc43-opt/libkkmc.so'
p4
S'../../../InstallArea/x86_64-slc5-gcc43-opt/lib/libkkmc.so'
p5
sS'../../../../../ExternalLib/Gaudi/GAUDI_v21r6/x86_64-slc5-gcc43-clhep2.0.4.5/GaudiSvc/x86_64-slc5-gcc43-opt/libGaudiSvc.so'
p6
S'../../../InstallArea/x86_64-slc5-gcc43-opt/lib/libGaudiSvc.so'
p7
sS'../../../../../../../afs/ihep.ac.cn/bes3/offline/ExternalLib/Gaudi/GAUDI_v21r6/x86_64-slc5-gcc43-clhep2.0.4.5/GaudiSvc/x86_64-slc5-gcc43-opt/libGaudiSvc.so'
p8
S'../../../InstallArea/x86_64-slc5-gcc43-opt/lib/libGaudiSvc.so'
p9
sS'../../../Generator/Bhwide/Bhwide-00-00-10/x86_64-slc5-gcc43-opt/libbhwide.so'
p10
S'../../../InstallArea/x86_64-slc5-gcc43-opt/lib/libbhwide.so'
p11
sS'../../../../../../../afs/ihep.ac.cn/bes3/offline/Boss/6.6.4.p01/Generator/KKMC/KKMC-00-00-44/x86_64-slc5-gcc43-opt/libkkmc.so'
p12
S'../../../InstallArea/x86_64-slc5-gcc43-opt/lib/libkkmc.so'
p13
sS'../../../Generator/KKMC/KKMC-00-00-43/x86_64-slc5-gcc43-opt/libkkmc.so'
p14
S'../../../InstallArea/x86_64-slc5-gcc43-opt/lib/libkkmc.so'
p15
sS'../../../../../../../afs/ihep.ac.cn/bes3/offline/Boss/6.6.4.p01/Generator/Ekhara/Ekhara-00-00-09/x86_64-slc5-gcc43-opt/libekhara.so'
p16
S'../../../InstallArea/x86_64-slc5-gcc43-opt/lib/libekhara.so'
p17
sS'../../../Generator/Ekhara/Ekhara-00-00-09/x86_64-slc5-gcc43-opt/libekhara.so'
p18
S'../../../InstallArea/x86_64-slc5-gcc43-opt/lib/libekhara.so'
p19
sS'../../../../../../../afs/ihep.ac.cn/bes3/offline/Boss/6.6.4.p01/Generator/Bhwide/Bhwide-00-00-10/x86_64-slc5-gcc43-opt/libbhwide.so'
p20
S'../../../InstallArea/x86_64-slc5-gcc43-opt/lib/libbhwide.so'
p21
ssb.